target datalayout = "e-m:e-p270:32:32-p271:32:32-p272:64:64-i64:64-i128:128-f80:128-n8:16:32:64-S128"
target triple = "x86_64-unknown-linux-gnu"

@.str.4 = private unnamed_addr constant [30 x i8] c"%02x:%02x:%02x:%02x:%02x:%02x\00", align 1
@error_abort = external global ptr, align 8

; Function Attrs: nounwind sspstrong uwtable
define dso_local void @qdev_prop_set_macaddr(ptr noundef %dev, ptr noundef %name, ptr noundef %value) #0 {
entry:
  %dev.addr = alloca ptr, align 8
  %name.addr = alloca ptr, align 8
  %value.addr = alloca ptr, align 8
  %str = alloca [18 x i8], align 16
  store ptr %dev, ptr %dev.addr, align 8
  store ptr %name, ptr %name.addr, align 8
  store ptr %value, ptr %value.addr, align 8
  %arraydecay = getelementptr inbounds [18 x i8], ptr %str, i64 0, i64 0
  %0 = load ptr, ptr %value.addr, align 8
  %arrayidx = getelementptr i8, ptr %0, i64 0
  %1 = load i8, ptr %arrayidx, align 1
  %conv = zext i8 %1 to i32
  %2 = load ptr, ptr %value.addr, align 8
  %arrayidx1 = getelementptr i8, ptr %2, i64 1
  %3 = load i8, ptr %arrayidx1, align 1
  %conv2 = zext i8 %3 to i32
  %4 = load ptr, ptr %value.addr, align 8
  %arrayidx3 = getelementptr i8, ptr %4, i64 2
  %5 = load i8, ptr %arrayidx3, align 1
  %conv4 = zext i8 %5 to i32
  %6 = load ptr, ptr %value.addr, align 8
  %arrayidx5 = getelementptr i8, ptr %6, i64 3
  %7 = load i8, ptr %arrayidx5, align 1
  %conv6 = zext i8 %7 to i32
  %8 = load ptr, ptr %value.addr, align 8
  %arrayidx7 = getelementptr i8, ptr %8, i64 4
  %9 = load i8, ptr %arrayidx7, align 1
  %conv8 = zext i8 %9 to i32
  %10 = load ptr, ptr %value.addr, align 8
  %arrayidx9 = getelementptr i8, ptr %10, i64 5
  %11 = load i8, ptr %arrayidx9, align 1
  %conv10 = zext i8 %11 to i32
  %call = call i32 (ptr, i64, ptr, ...) @snprintf(ptr noundef %arraydecay, i64 noundef 18, ptr noundef @.str.4, i32 noundef %conv, i32 noundef %conv2, i32 noundef %conv4, i32 noundef %conv6, i32 noundef %conv8, i32 noundef %conv10) #7
  %12 = load ptr, ptr %dev.addr, align 8
  %13 = load ptr, ptr %name.addr, align 8
  %arraydecay11 = getelementptr inbounds [18 x i8], ptr %str, i64 0, i64 0
  %call12 = call zeroext i1 @object_property_set_str(ptr noundef %12, ptr noundef %13, ptr noundef %arraydecay11, ptr noundef @error_abort)
  ret void
}