; Function Attrs: nounwind sspstrong uwtable
define dso_local void @qdev_prop_set_macaddr(ptr noundef %dev, ptr noundef %name, ptr noundef readonly captures(none) %value) local_unnamed_addr #0 {
entry:
  %str = alloca [18 x i8], align 16
  %0 = load i8, ptr %value, align 1
  %conv = zext i8 %0 to i32
  %arrayidx1 = getelementptr i8, ptr %value, i64 1
  %1 = load i8, ptr %arrayidx1, align 1
  %conv2 = zext i8 %1 to i32
  %arrayidx3 = getelementptr i8, ptr %value, i64 2
  %2 = load i8, ptr %arrayidx3, align 1
  %conv4 = zext i8 %2 to i32
  %arrayidx5 = getelementptr i8, ptr %value, i64 3
  %3 = load i8, ptr %arrayidx5, align 1
  %conv6 = zext i8 %3 to i32
  %arrayidx7 = getelementptr i8, ptr %value, i64 4
  %4 = load i8, ptr %arrayidx7, align 1
  %conv8 = zext i8 %4 to i32
  %arrayidx9 = getelementptr i8, ptr %value, i64 5
  %5 = load i8, ptr %arrayidx9, align 1
  %conv10 = zext i8 %5 to i32
  %call = call i32 (ptr, i64, ptr, ...) @snprintf(ptr noundef nonnull dereferenceable(1) %str, i64 noundef 18, ptr noundef nonnull @.str.4, i32 noundef %conv, i32 noundef %conv2, i32 noundef %conv4, i32 noundef %conv6, i32 noundef %conv8, i32 noundef %conv10) #10
  %call12 = call zeroext i1 @object_property_set_str(ptr noundef %dev, ptr noundef %name, ptr noundef nonnull %str, ptr noundef nonnull @error_abort) #10
  ret void
}